; ModuleID = 'source-C-CXX/27/98.c'
source_filename = "source-C-CXX/27/98.c"
target datalayout = "e-m:e-p270:32:32-p271:32:32-p272:64:64-i64:64-f80:128-n8:16:32:64-S128"
target triple = "x86_64-pc-linux-gnu"

@.str.1 = private unnamed_addr constant [3 x i8] c"%d\00", align 1

; Function Attrs: nounwind sspstrong uwtable
define dso_local void @main() local_unnamed_addr #0 {
  %1 = alloca [2000 x i8], align 16
  %2 = getelementptr inbounds [2000 x i8], [2000 x i8]* %1, i64 0, i64 0
  call void @llvm.lifetime.start.p0i8(i64 2000, i8* nonnull %2) #6
  call void @llvm.memset.p0i8.i64(i8* noundef nonnull align 16 dereferenceable(2000) %2, i8 0, i64 2000, i1 false)
  %3 = call i32 (i8*, ...) bitcast (i32 (...)* @gets to i32 (i8*, ...)*)(i8* nonnull %2) #6
  br label %4

4:                                                ; preds = %22, %0
  %5 = phi i64 [ %26, %22 ], [ 0, %0 ]
  %6 = phi i32 [ %23, %22 ], [ 0, %0 ]
  %7 = phi i32 [ %24, %22 ], [ 0, %0 ]
  %8 = phi i32 [ %25, %22 ], [ 0, %0 ]
  %9 = getelementptr inbounds [2000 x i8], [2000 x i8]* %1, i64 0, i64 %5
  %10 = load i8, i8* %9, align 1, !tbaa !5
  switch i8 %10, label %11 [
    i8 0, label %27
    i8 32, label %13
  ]

11:                                               ; preds = %4
  %12 = add nsw i32 %7, 1
  br label %22

13:                                               ; preds = %4
  %14 = icmp eq i32 %6, 1
  br i1 %14, label %15, label %22

15:                                               ; preds = %13
  %16 = icmp eq i32 %8, 0
  br i1 %16, label %19, label %17

17:                                               ; preds = %15
  %18 = call i32 @putchar(i32 44)
  br label %19

19:                                               ; preds = %17, %15
  %20 = call i32 (i8*, ...) @printf(i8* nonnull dereferenceable(1) getelementptr inbounds ([3 x i8], [3 x i8]* @.str.1, i64 0, i64 0), i32 %7)
  %21 = add nsw i32 %8, 1
  br label %22

22:                                               ; preds = %11, %19, %13
  %23 = phi i32 [ 1, %11 ], [ 0, %19 ], [ 0, %13 ]
  %24 = phi i32 [ %12, %11 ], [ 0, %19 ], [ %7, %13 ]
  %25 = phi i32 [ %8, %11 ], [ %21, %19 ], [ %8, %13 ]
  %26 = add nuw i64 %5, 1
  br label %4, !llvm.loop !8

27:                                               ; preds = %4
  %28 = icmp eq i32 %7, 0
  br i1 %28, label %35, label %29

29:                                               ; preds = %27
  %30 = icmp eq i32 %8, 0
  br i1 %30, label %33, label %31

31:                                               ; preds = %29
  %32 = call i32 @putchar(i32 44)
  br label %33

33:                                               ; preds = %31, %29
  %34 = call i32 (i8*, ...) @printf(i8* nonnull dereferenceable(1) getelementptr inbounds ([3 x i8], [3 x i8]* @.str.1, i64 0, i64 0), i32 %7)
  br label %35

35:                                               ; preds = %33, %27
  %36 = call i32 @putchar(i32 10)
  call void @llvm.lifetime.end.p0i8(i64 2000, i8* nonnull %2) #6
  ret void
}

; Function Attrs: argmemonly mustprogress nofree nosync nounwind willreturn
declare void @llvm.lifetime.start.p0i8(i64 immarg, i8* nocapture) #1

; Function Attrs: argmemonly mustprogress nofree nounwind willreturn writeonly
declare void @llvm.memset.p0i8.i64(i8* nocapture writeonly, i8, i64, i1 immarg) #2

declare i32 @gets(...) local_unnamed_addr #3

; Function Attrs: nofree nounwind
declare noundef i32 @printf(i8* nocapture noundef readonly, ...) local_unnamed_addr #4

; Function Attrs: argmemonly mustprogress nofree nosync nounwind willreturn
declare void @llvm.lifetime.end.p0i8(i64 immarg, i8* nocapture) #1

; Function Attrs: nofree nounwind
declare noundef i32 @putchar(i32 noundef) local_unnamed_addr #5


!llvm.module.flags = !{!0, !1, !2, !3}
!llvm.ident = !{!4}

!0 = !{i32 1, !"wchar_size", i32 4}
!1 = !{i32 7, !"PIC Level", i32 2}
!2 = !{i32 7, !"PIE Level", i32 2}
!3 = !{i32 7, !"uwtable", i32 1}
!4 = !{!"clang version 13.0.0"}
!5 = !{!6, !6, i64 0}
!6 = !{!"omnipotent char", !7, i64 0}
!7 = !{!"Simple C/C++ TBAA"}
!8 = distinct !{!8, !9}
!9 = !{!"llvm.loop.mustprogress"}
